; Function Attrs: nounwind uwtable
define void @Lcr_ManFree(ptr noundef captures(none) %0) local_unnamed_addr #2 {
  %2 = getelementptr inbounds nuw i8, ptr %0, i64 56
  %3 = load i32, ptr %2, align 8
  %.not = icmp eq i32 %3, 0
  br i1 %.not, label %5, label %4

4:                                                ; preds = %1
  tail call void @Lcr_ManPrint(ptr noundef nonnull %0)
  br label %5

5:                                                ; preds = %4, %1
  %6 = load ptr, ptr %0, align 8
  %7 = getelementptr inbounds nuw i8, ptr %6, i64 16
  %8 = load ptr, ptr %7, align 8
  %9 = getelementptr i8, ptr %8, i64 4
  %.val30 = load i32, ptr %9, align 4
  %10 = icmp sgt i32 %.val30, 0
  br i1 %10, label %.lr.ph, label %.critedge

.lr.ph:                                           ; preds = %5, %.lr.ph
  %indvars.iv = phi i64 [ %indvars.iv.next, %.lr.ph ], [ 0, %5 ]
  %11 = phi ptr [ %17, %.lr.ph ], [ %8, %5 ]
  %12 = getelementptr i8, ptr %11, i64 8
  %.val28 = load ptr, ptr %12, align 8
  %13 = getelementptr inbounds nuw ptr, ptr %.val28, i64 %indvars.iv
  %14 = load ptr, ptr %13, align 8
  store ptr null, ptr %14, align 8
  %indvars.iv.next = add nuw nsw i64 %indvars.iv, 1
  %15 = load ptr, ptr %0, align 8
  %16 = getelementptr inbounds nuw i8, ptr %15, i64 16
  %17 = load ptr, ptr %16, align 8
  %18 = getelementptr i8, ptr %17, i64 4
  %.val = load i32, ptr %18, align 4
  %19 = sext i32 %.val to i64
  %20 = icmp slt i64 %indvars.iv.next, %19
  br i1 %20, label %.lr.ph, label %.critedge, !llvm.loop !4

.critedge:                                        ; preds = %.lr.ph, %5
  %21 = getelementptr inbounds nuw i8, ptr %0, i64 40
  %22 = load ptr, ptr %21, align 8
  %23 = getelementptr inbounds nuw i8, ptr %22, i64 8
  %24 = load ptr, ptr %23, align 8
  %.not.i = icmp eq ptr %24, null
  br i1 %.not.i, label %Vec_PtrFree.exit, label %25

25:                                               ; preds = %.critedge
  tail call void @free(ptr noundef nonnull %24) #18
  br label %Vec_PtrFree.exit

Vec_PtrFree.exit:                                 ; preds = %.critedge, %25
  tail call void @free(ptr noundef nonnull %22) #18
  %26 = getelementptr inbounds nuw i8, ptr %0, i64 8
  %27 = load ptr, ptr %26, align 8
  %.not24 = icmp eq ptr %27, null
  br i1 %.not24, label %29, label %28

28:                                               ; preds = %Vec_PtrFree.exit
  tail call void @Fra_ClassesStop(ptr noundef nonnull %27) #18
  br label %29

29:                                               ; preds = %28, %Vec_PtrFree.exit
  %30 = getelementptr inbounds nuw i8, ptr %0, i64 16
  %31 = load ptr, ptr %30, align 8
  %.not25 = icmp eq ptr %31, null
  br i1 %.not25, label %49, label %32

32:                                               ; preds = %29
  %33 = getelementptr i8, ptr %31, i64 4
  %.val11.i = load i32, ptr %33, align 4
  %34 = icmp sgt i32 %.val11.i, 0
  br i1 %34, label %.lr.ph.i, label %.critedge.i

.lr.ph.i:                                         ; preds = %32
  %35 = getelementptr i8, ptr %31, i64 8
  br label %36

36:                                               ; preds = %43, %.lr.ph.i
  %.val14.i = phi i32 [ %.val11.i, %.lr.ph.i ], [ %.val.i, %43 ]
  %indvars.iv.i = phi i64 [ 0, %.lr.ph.i ], [ %indvars.iv.next.i, %43 ]
  %.val8.i = load ptr, ptr %35, align 8
  %37 = getelementptr inbounds nuw ptr, ptr %.val8.i, i64 %indvars.iv.i
  %38 = load ptr, ptr %37, align 8
  %.not.i29 = icmp eq ptr %38, null
  br i1 %.not.i29, label %43, label %39

39:                                               ; preds = %36
  %40 = getelementptr inbounds nuw i8, ptr %38, i64 8
  %41 = load ptr, ptr %40, align 8
  %.not.i.i = icmp eq ptr %41, null
  br i1 %.not.i.i, label %Vec_PtrFree.exit.i, label %42

42:                                               ; preds = %39
  tail call void @free(ptr noundef nonnull %41) #18
  br label %Vec_PtrFree.exit.i

Vec_PtrFree.exit.i:                               ; preds = %42, %39
  tail call void @free(ptr noundef nonnull %38) #18
  %.val.pre.i = load i32, ptr %33, align 4
  br label %43

43:                                               ; preds = %Vec_PtrFree.exit.i, %36
  %.val.i = phi i32 [ %.val14.i, %36 ], [ %.val.pre.i, %Vec_PtrFree.exit.i ]
  %indvars.iv.next.i = add nuw nsw i64 %indvars.iv.i, 1
  %44 = sext i32 %.val.i to i64
  %45 = icmp slt i64 %indvars.iv.next.i, %44
  br i1 %45, label %36, label %.critedge.i, !llvm.loop !6

.critedge.i:                                      ; preds = %43, %32
  %46 = getelementptr inbounds nuw i8, ptr %31, i64 8
  %47 = load ptr, ptr %46, align 8
  %.not.i9.i = icmp eq ptr %47, null
  br i1 %.not.i9.i, label %Vec_VecFree.exit, label %48

48:                                               ; preds = %.critedge.i
  tail call void @free(ptr noundef nonnull %47) #18
  br label %Vec_VecFree.exit

Vec_VecFree.exit:                                 ; preds = %.critedge.i, %48
  tail call void @free(ptr noundef nonnull %31) #18
  br label %49

49:                                               ; preds = %Vec_VecFree.exit, %29
  %50 = getelementptr inbounds nuw i8, ptr %0, i64 24
  %51 = load ptr, ptr %50, align 8
  %.not26 = icmp eq ptr %51, null
  br i1 %.not26, label %53, label %52

52:                                               ; preds = %49
  tail call void @free(ptr noundef nonnull %51) #18
  store ptr null, ptr %50, align 8
  br label %53

53:                                               ; preds = %49, %52
  %54 = getelementptr inbounds nuw i8, ptr %0, i64 32
  %55 = load ptr, ptr %54, align 8
  %.not27 = icmp eq ptr %55, null
  br i1 %.not27, label %57, label %56

56:                                               ; preds = %53
  tail call void @free(ptr noundef nonnull %55) #18
  br label %57

57:                                               ; preds = %56, %53
  tail call void @free(ptr noundef nonnull %0) #18
  ret void
}